target datalayout = "e-m:e-p270:32:32-p271:32:32-p272:64:64-i64:64-i128:128-f80:128-n8:16:32:64-S128"
target triple = "x86_64-pc-linux-gnu"

%struct.ForEachState = type { ptr, i32 }
%struct.List = type { i32, i32, i32, ptr, [0 x %union.ListCell] }
%union.ListCell = type { ptr }
%struct.RelOptInfo = type { i32, i32, ptr, double, i8, i8, i8, ptr, ptr, ptr, ptr, ptr, ptr, ptr, ptr, ptr, ptr, i32, i32, i32, i16, i16, ptr, ptr, ptr, ptr, ptr, ptr, ptr, ptr, i32, double, double, ptr, ptr, ptr, i32, i32, i32, i32, i8, ptr, ptr, ptr, ptr, ptr, %struct.QualCost, i32, ptr, i8, i8, ptr, ptr, ptr, ptr, i32, ptr, i8, ptr, ptr, ptr, ptr, ptr, ptr }
%struct.QualCost = type { double, double }
%struct.Node = type { i32 }
%struct.Expr = type { i32 }
%struct.PartitionSchemeData = type { i8, i16, ptr, ptr, ptr, ptr, ptr, ptr }
%struct.RelabelType = type { %struct.Expr, ptr, i32, i32, i32, i32, i32 }

; Function Attrs: nounwind uwtable
define internal i32 @match_expr_to_partition_keys(ptr noundef %0, ptr noundef %1, i1 noundef zeroext %2) #0 {
  %4 = alloca i32, align 4
  %5 = alloca ptr, align 8
  %6 = alloca ptr, align 8
  %7 = alloca i8, align 1
  %8 = alloca i32, align 4
  %9 = alloca ptr, align 8
  %10 = alloca %struct.ForEachState, align 8
  %11 = alloca i32, align 4
  %12 = alloca %struct.ForEachState, align 8
  store ptr %0, ptr %5, align 8
  store ptr %1, ptr %6, align 8
  %13 = zext i1 %2 to i8
  store i8 %13, ptr %7, align 1
  call void @llvm.lifetime.start.p0(i64 4, ptr %8) #6
  br label %14

14:                                               ; preds = %19, %3
  %15 = load ptr, ptr %5, align 8
  %16 = getelementptr inbounds nuw %struct.Node, ptr %15, i32 0, i32 0
  %17 = load i32, ptr %16, align 4
  %18 = icmp eq i32 %17, 27
  br i1 %18, label %19, label %23

19:                                               ; preds = %14
  %20 = load ptr, ptr %5, align 8
  %21 = getelementptr inbounds nuw %struct.RelabelType, ptr %20, i32 0, i32 1
  %22 = load ptr, ptr %21, align 8
  store ptr %22, ptr %5, align 8
  br label %14, !llvm.loop !33

23:                                               ; preds = %14
  store i32 0, ptr %8, align 4
  br label %24

24:                                               ; preds = %143, %23
  %25 = load i32, ptr %8, align 4
  %26 = load ptr, ptr %6, align 8
  %27 = getelementptr inbounds nuw %struct.RelOptInfo, ptr %26, i32 0, i32 54
  %28 = load ptr, ptr %27, align 8
  %29 = getelementptr inbounds nuw %struct.PartitionSchemeData, ptr %28, i32 0, i32 1
  %30 = load i16, ptr %29, align 2
  %31 = sext i16 %30 to i32
  %32 = icmp slt i32 %25, %31
  br i1 %32, label %33, label %146

33:                                               ; preds = %24
  call void @llvm.lifetime.start.p0(i64 8, ptr %9) #6
  call void @llvm.lifetime.start.p0(i64 16, ptr %10) #6
  %34 = getelementptr inbounds nuw %struct.ForEachState, ptr %10, i32 0, i32 0
  %35 = load ptr, ptr %6, align 8
  %36 = getelementptr inbounds nuw %struct.RelOptInfo, ptr %35, i32 0, i32 62
  %37 = load ptr, ptr %36, align 8
  %38 = load i32, ptr %8, align 4
  %39 = sext i32 %38 to i64
  %40 = getelementptr inbounds ptr, ptr %37, i64 %39
  %41 = load ptr, ptr %40, align 8
  store ptr %41, ptr %34, align 8
  %42 = getelementptr inbounds nuw %struct.ForEachState, ptr %10, i32 0, i32 1
  store i32 0, ptr %42, align 8
  %43 = getelementptr i8, ptr %10, i64 12
  call void @llvm.memset.p0.i64(ptr align 4 %43, i8 0, i64 4, i1 false)
  br label %44

44:                                               ; preds = %78, %33
  %45 = getelementptr inbounds nuw %struct.ForEachState, ptr %10, i32 0, i32 0
  %46 = load ptr, ptr %45, align 8
  %47 = icmp ne ptr %46, null
  br i1 %47, label %48, label %65

48:                                               ; preds = %44
  %49 = getelementptr inbounds nuw %struct.ForEachState, ptr %10, i32 0, i32 1
  %50 = load i32, ptr %49, align 8
  %51 = getelementptr inbounds nuw %struct.ForEachState, ptr %10, i32 0, i32 0
  %52 = load ptr, ptr %51, align 8
  %53 = getelementptr inbounds nuw %struct.List, ptr %52, i32 0, i32 1
  %54 = load i32, ptr %53, align 4
  %55 = icmp slt i32 %50, %54
  br i1 %55, label %56, label %65

56:                                               ; preds = %48
  %57 = getelementptr inbounds nuw %struct.ForEachState, ptr %10, i32 0, i32 0
  %58 = load ptr, ptr %57, align 8
  %59 = getelementptr inbounds nuw %struct.List, ptr %58, i32 0, i32 3
  %60 = load ptr, ptr %59, align 8
  %61 = getelementptr inbounds nuw %struct.ForEachState, ptr %10, i32 0, i32 1
  %62 = load i32, ptr %61, align 8
  %63 = sext i32 %62 to i64
  %64 = getelementptr inbounds %union.ListCell, ptr %60, i64 %63
  store ptr %64, ptr %9, align 8
  br label %66

65:                                               ; preds = %48, %44
  store ptr null, ptr %9, align 8
  br label %66

66:                                               ; preds = %65, %56
  %67 = phi i32 [ 1, %56 ], [ 0, %65 ]
  %68 = icmp ne i32 %67, 0
  br i1 %68, label %70, label %69

69:                                               ; preds = %66
  store i32 7, ptr %11, align 4
  br label %82

70:                                               ; preds = %66
  %71 = load ptr, ptr %9, align 8
  %72 = load ptr, ptr %71, align 8
  %73 = load ptr, ptr %5, align 8
  %74 = call zeroext i1 @equal(ptr noundef %72, ptr noundef %73)
  br i1 %74, label %75, label %77

75:                                               ; preds = %70
  %76 = load i32, ptr %8, align 4
  store i32 %76, ptr %4, align 4
  store i32 1, ptr %11, align 4
  br label %82

77:                                               ; preds = %70
  br label %78

78:                                               ; preds = %77
  %79 = getelementptr inbounds nuw %struct.ForEachState, ptr %10, i32 0, i32 1
  %80 = load i32, ptr %79, align 8
  %81 = add i32 %80, 1
  store i32 %81, ptr %79, align 8
  br label %44, !llvm.loop !34

82:                                               ; preds = %75, %69
  call void @llvm.lifetime.end.p0(i64 16, ptr %10) #6
  %83 = load i32, ptr %11, align 4
  switch i32 %83, label %140 [
    i32 7, label %84
  ]

84:                                               ; preds = %82
  %85 = load i8, ptr %7, align 1, !range !7, !noundef !8
  %86 = trunc i8 %85 to i1
  br i1 %86, label %88, label %87

87:                                               ; preds = %84
  store i32 6, ptr %11, align 4
  br label %140

88:                                               ; preds = %84
  call void @llvm.lifetime.start.p0(i64 16, ptr %12) #6
  %89 = getelementptr inbounds nuw %struct.ForEachState, ptr %12, i32 0, i32 0
  %90 = load ptr, ptr %6, align 8
  %91 = getelementptr inbounds nuw %struct.RelOptInfo, ptr %90, i32 0, i32 63
  %92 = load ptr, ptr %91, align 8
  %93 = load i32, ptr %8, align 4
  %94 = sext i32 %93 to i64
  %95 = getelementptr inbounds ptr, ptr %92, i64 %94
  %96 = load ptr, ptr %95, align 8
  store ptr %96, ptr %89, align 8
  %97 = getelementptr inbounds nuw %struct.ForEachState, ptr %12, i32 0, i32 1
  store i32 0, ptr %97, align 8
  %98 = getelementptr i8, ptr %12, i64 12
  call void @llvm.memset.p0.i64(ptr align 4 %98, i8 0, i64 4, i1 false)
  br label %99

99:                                               ; preds = %133, %88
  %100 = getelementptr inbounds nuw %struct.ForEachState, ptr %12, i32 0, i32 0
  %101 = load ptr, ptr %100, align 8
  %102 = icmp ne ptr %101, null
  br i1 %102, label %103, label %120

103:                                              ; preds = %99
  %104 = getelementptr inbounds nuw %struct.ForEachState, ptr %12, i32 0, i32 1
  %105 = load i32, ptr %104, align 8
  %106 = getelementptr inbounds nuw %struct.ForEachState, ptr %12, i32 0, i32 0
  %107 = load ptr, ptr %106, align 8
  %108 = getelementptr inbounds nuw %struct.List, ptr %107, i32 0, i32 1
  %109 = load i32, ptr %108, align 4
  %110 = icmp slt i32 %105, %109
  br i1 %110, label %111, label %120

111:                                              ; preds = %103
  %112 = getelementptr inbounds nuw %struct.ForEachState, ptr %12, i32 0, i32 0
  %113 = load ptr, ptr %112, align 8
  %114 = getelementptr inbounds nuw %struct.List, ptr %113, i32 0, i32 3
  %115 = load ptr, ptr %114, align 8
  %116 = getelementptr inbounds nuw %struct.ForEachState, ptr %12, i32 0, i32 1
  %117 = load i32, ptr %116, align 8
  %118 = sext i32 %117 to i64
  %119 = getelementptr inbounds %union.ListCell, ptr %115, i64 %118
  store ptr %119, ptr %9, align 8
  br label %121

120:                                              ; preds = %103, %99
  store ptr null, ptr %9, align 8
  br label %121

121:                                              ; preds = %120, %111
  %122 = phi i32 [ 1, %111 ], [ 0, %120 ]
  %123 = icmp ne i32 %122, 0
  br i1 %123, label %125, label %124

124:                                              ; preds = %121
  store i32 10, ptr %11, align 4
  br label %137

125:                                              ; preds = %121
  %126 = load ptr, ptr %9, align 8
  %127 = load ptr, ptr %126, align 8
  %128 = load ptr, ptr %5, align 8
  %129 = call zeroext i1 @equal(ptr noundef %127, ptr noundef %128)
  br i1 %129, label %130, label %132

130:                                              ; preds = %125
  %131 = load i32, ptr %8, align 4
  store i32 %131, ptr %4, align 4
  store i32 1, ptr %11, align 4
  br label %137

132:                                              ; preds = %125
  br label %133

133:                                              ; preds = %132
  %134 = getelementptr inbounds nuw %struct.ForEachState, ptr %12, i32 0, i32 1
  %135 = load i32, ptr %134, align 8
  %136 = add i32 %135, 1
  store i32 %136, ptr %134, align 8
  br label %99, !llvm.loop !35

137:                                              ; preds = %130, %124
  call void @llvm.lifetime.end.p0(i64 16, ptr %12) #6
  %138 = load i32, ptr %11, align 4
  switch i32 %138, label %140 [
    i32 10, label %139
  ]

139:                                              ; preds = %137
  store i32 0, ptr %11, align 4
  br label %140

140:                                              ; preds = %139, %137, %87, %82
  call void @llvm.lifetime.end.p0(i64 8, ptr %9) #6
  %141 = load i32, ptr %11, align 4
  switch i32 %141, label %147 [
    i32 0, label %142
    i32 6, label %143
  ]

142:                                              ; preds = %140
  br label %143

143:                                              ; preds = %142, %140
  %144 = load i32, ptr %8, align 4
  %145 = add i32 %144, 1
  store i32 %145, ptr %8, align 4
  br label %24, !llvm.loop !36

146:                                              ; preds = %24
  store i32 -1, ptr %4, align 4
  store i32 1, ptr %11, align 4
  br label %147

147:                                              ; preds = %146, %140
  call void @llvm.lifetime.end.p0(i64 4, ptr %8) #6
  %148 = load i32, ptr %4, align 4
  ret i32 %148
}