; Function Attrs: nounwind uwtable
define internal fastcc i32 @match_expr_to_partition_keys(ptr noundef %0, ptr noundef readonly captures(none) %1, i1 noundef zeroext %2) unnamed_addr #0 {
  %4 = load i32, ptr %0, align 4
  %5 = icmp eq i32 %4, 27
  br i1 %5, label %.lr.ph, label %.preheader

.preheader:                                       ; preds = %.lr.ph, %3
  %.031.lcssa = phi ptr [ %0, %3 ], [ %49, %.lr.ph ]
  %6 = getelementptr inbounds nuw i8, ptr %1, i64 368
  %7 = load ptr, ptr %6, align 8
  %8 = getelementptr inbounds nuw i8, ptr %7, i64 2
  %9 = load i16, ptr %8, align 2
  %10 = icmp sgt i16 %9, 0
  br i1 %10, label %.lr.ph88, label %.thread60

.lr.ph88:                                         ; preds = %.preheader
  %11 = getelementptr inbounds nuw i8, ptr %1, i64 432
  %12 = getelementptr inbounds nuw i8, ptr %1, i64 440
  br i1 %2, label %.lr.ph88.split.us, label %.lr.ph88.split

.lr.ph88.split.us:                                ; preds = %.lr.ph88, %.thread63.loopexit.us
  %indvars.iv116 = phi i64 [ %indvars.iv.next117, %.thread63.loopexit.us ], [ 0, %.lr.ph88 ]
  %13 = load ptr, ptr %11, align 8
  %14 = getelementptr inbounds nuw ptr, ptr %13, i64 %indvars.iv116
  %15 = load ptr, ptr %14, align 8
  %.not.us = icmp eq ptr %15, null
  br i1 %.not.us, label %._crit_edge.us, label %.lr.ph73.us

16:                                               ; preds = %.lr.ph76.us
  %indvars.iv.next111 = add nuw nsw i64 %indvars.iv110, 1
  %17 = load i32, ptr %40, align 4
  %18 = sext i32 %17 to i64
  %19 = icmp slt i64 %indvars.iv.next111, %18
  br i1 %19, label %.lr.ph76.us, label %._crit_edge.us

.lr.ph76.us:                                      ; preds = %.lr.ph73.us, %16
  %indvars.iv110 = phi i64 [ %indvars.iv.next111, %16 ], [ 0, %.lr.ph73.us ]
  %20 = load ptr, ptr %41, align 8
  %21 = getelementptr inbounds nuw %union.ListCell, ptr %20, i64 %indvars.iv110
  %22 = load ptr, ptr %21, align 8
  %23 = tail call zeroext i1 @equal(ptr noundef %22, ptr noundef nonnull %.031.lcssa) #7
  br i1 %23, label %.thread60.loopexit99, label %16

._crit_edge.us:                                   ; preds = %16, %.lr.ph73.us, %.lr.ph88.split.us
  %24 = load ptr, ptr %12, align 8
  %25 = getelementptr inbounds nuw ptr, ptr %24, i64 %indvars.iv116
  %26 = load ptr, ptr %25, align 8
  %.not41.us = icmp eq ptr %26, null
  br i1 %.not41.us, label %.thread63.loopexit.us, label %.lr.ph79.us

27:                                               ; preds = %.lr.ph83.us
  %indvars.iv.next114 = add nuw nsw i64 %indvars.iv113, 1
  %28 = load i32, ptr %44, align 4
  %29 = sext i32 %28 to i64
  %30 = icmp slt i64 %indvars.iv.next114, %29
  br i1 %30, label %.lr.ph83.us, label %.thread63.loopexit.us

.lr.ph83.us:                                      ; preds = %.lr.ph79.us, %27
  %indvars.iv113 = phi i64 [ %indvars.iv.next114, %27 ], [ 0, %.lr.ph79.us ]
  %31 = load ptr, ptr %45, align 8
  %32 = getelementptr inbounds nuw %union.ListCell, ptr %31, i64 %indvars.iv113
  %33 = load ptr, ptr %32, align 8
  %34 = tail call zeroext i1 @equal(ptr noundef %33, ptr noundef nonnull %.031.lcssa) #7
  br i1 %34, label %.thread60.loopexit, label %27

.thread63.loopexit.us:                            ; preds = %27, %.lr.ph79.us, %._crit_edge.us
  %indvars.iv.next117 = add nuw nsw i64 %indvars.iv116, 1
  %35 = load ptr, ptr %6, align 8
  %36 = getelementptr inbounds nuw i8, ptr %35, i64 2
  %37 = load i16, ptr %36, align 2
  %38 = sext i16 %37 to i64
  %39 = icmp slt i64 %indvars.iv.next117, %38
  br i1 %39, label %.lr.ph88.split.us, label %.thread60, !llvm.loop !10

.lr.ph73.us:                                      ; preds = %.lr.ph88.split.us
  %40 = getelementptr inbounds nuw i8, ptr %15, i64 4
  %41 = getelementptr inbounds nuw i8, ptr %15, i64 16
  %42 = load i32, ptr %40, align 4
  %43 = icmp sgt i32 %42, 0
  br i1 %43, label %.lr.ph76.us, label %._crit_edge.us

.lr.ph79.us:                                      ; preds = %._crit_edge.us
  %44 = getelementptr inbounds nuw i8, ptr %26, i64 4
  %45 = getelementptr inbounds nuw i8, ptr %26, i64 16
  %46 = load i32, ptr %44, align 4
  %47 = icmp sgt i32 %46, 0
  br i1 %47, label %.lr.ph83.us, label %.thread63.loopexit.us

.lr.ph:                                           ; preds = %3, %.lr.ph
  %.03171 = phi ptr [ %49, %.lr.ph ], [ %0, %3 ]
  %48 = getelementptr inbounds nuw i8, ptr %.03171, i64 8
  %49 = load ptr, ptr %48, align 8
  %50 = load i32, ptr %49, align 4
  %51 = icmp eq i32 %50, 27
  br i1 %51, label %.lr.ph, label %.preheader, !llvm.loop !11

.lr.ph88.split:                                   ; preds = %.lr.ph88, %.thread63
  %52 = phi ptr [ %68, %.thread63 ], [ %7, %.lr.ph88 ]
  %indvars.iv107 = phi i64 [ %indvars.iv.next108, %.thread63 ], [ 0, %.lr.ph88 ]
  %53 = load ptr, ptr %11, align 8
  %54 = getelementptr inbounds nuw ptr, ptr %53, i64 %indvars.iv107
  %55 = load ptr, ptr %54, align 8
  %.not = icmp eq ptr %55, null
  br i1 %.not, label %.thread63, label %.lr.ph73

.lr.ph73:                                         ; preds = %.lr.ph88.split
  %56 = getelementptr inbounds nuw i8, ptr %55, i64 4
  %57 = getelementptr inbounds nuw i8, ptr %55, i64 16
  %58 = load i32, ptr %56, align 4
  %59 = icmp sgt i32 %58, 0
  br i1 %59, label %.lr.ph76, label %.thread63

60:                                               ; preds = %.lr.ph76
  %indvars.iv.next = add nuw nsw i64 %indvars.iv, 1
  %61 = load i32, ptr %56, align 4
  %62 = sext i32 %61 to i64
  %63 = icmp slt i64 %indvars.iv.next, %62
  br i1 %63, label %.lr.ph76, label %.thread63.loopexit

.lr.ph76:                                         ; preds = %.lr.ph73, %60
  %indvars.iv = phi i64 [ %indvars.iv.next, %60 ], [ 0, %.lr.ph73 ]
  %64 = load ptr, ptr %57, align 8
  %65 = getelementptr inbounds nuw %union.ListCell, ptr %64, i64 %indvars.iv
  %66 = load ptr, ptr %65, align 8
  %67 = tail call zeroext i1 @equal(ptr noundef %66, ptr noundef nonnull %.031.lcssa) #7
  br i1 %67, label %.thread60.loopexit101, label %60

.thread63.loopexit:                               ; preds = %60
  %.pre = load ptr, ptr %6, align 8
  br label %.thread63

.thread63:                                        ; preds = %.thread63.loopexit, %.lr.ph73, %.lr.ph88.split
  %68 = phi ptr [ %.pre, %.thread63.loopexit ], [ %52, %.lr.ph73 ], [ %52, %.lr.ph88.split ]
  %indvars.iv.next108 = add nuw nsw i64 %indvars.iv107, 1
  %69 = getelementptr inbounds nuw i8, ptr %68, i64 2
  %70 = load i16, ptr %69, align 2
  %71 = sext i16 %70 to i64
  %72 = icmp slt i64 %indvars.iv.next108, %71
  br i1 %72, label %.lr.ph88.split, label %.thread60, !llvm.loop !10

.thread60.loopexit:                               ; preds = %.lr.ph83.us
  %73 = trunc nuw nsw i64 %indvars.iv116 to i32
  br label %.thread60

.thread60.loopexit99:                             ; preds = %.lr.ph76.us
  %74 = trunc nuw nsw i64 %indvars.iv116 to i32
  br label %.thread60

.thread60.loopexit101:                            ; preds = %.lr.ph76
  %75 = trunc nuw nsw i64 %indvars.iv107 to i32
  br label %.thread60

.thread60:                                        ; preds = %.thread63, %.thread63.loopexit.us, %.thread60.loopexit101, %.thread60.loopexit99, %.thread60.loopexit, %.preheader
  %.4 = phi i32 [ -1, %.preheader ], [ %73, %.thread60.loopexit ], [ %74, %.thread60.loopexit99 ], [ %75, %.thread60.loopexit101 ], [ -1, %.thread63.loopexit.us ], [ -1, %.thread63 ]
  ret i32 %.4
}